target datalayout = "e-m:e-p270:32:32-p271:32:32-p272:64:64-i64:64-i128:128-f80:128-n8:16:32:64-S128"
target triple = "x86_64-pc-linux-gnu"

%struct.ps_prochandle = type { ptr, i32, i32, ptr, ptr, i32, ptr, ptr }
%struct.core_data = type { i32, i32, i32, i32, i64, i64, i64, ptr, ptr, ptr }
%struct.map_info = type { i32, i64, i64, i64, i32, ptr }

@.str.44 = private unnamed_addr constant [37 x i8] c"can't allocate memory for map array\0A\00", align 1
@.str.45 = private unnamed_addr constant [38 x i8] c"---- sorted virtual address map ----\0A\00", align 1
@.str.46 = private unnamed_addr constant [25 x i8] c"base = 0x%lx\09size = %zu\0A\00", align 1

; Function Attrs: nounwind uwtable
define internal i32 @sort_map_array(ptr noundef %0) #0 {
  %2 = alloca i32, align 4
  %3 = alloca ptr, align 8
  %4 = alloca i64, align 8
  %5 = alloca ptr, align 8
  %6 = alloca i32, align 4
  %7 = alloca ptr, align 8
  %8 = alloca i32, align 4
  store ptr %0, ptr %3, align 8
  %9 = load ptr, ptr %3, align 8
  %10 = getelementptr inbounds %struct.ps_prochandle, ptr %9, i32 0, i32 7
  %11 = load ptr, ptr %10, align 8
  %12 = getelementptr inbounds %struct.core_data, ptr %11, i32 0, i32 6
  %13 = load i64, ptr %12, align 8
  store i64 %13, ptr %4, align 8
  %14 = load ptr, ptr %3, align 8
  %15 = getelementptr inbounds %struct.ps_prochandle, ptr %14, i32 0, i32 7
  %16 = load ptr, ptr %15, align 8
  %17 = getelementptr inbounds %struct.core_data, ptr %16, i32 0, i32 7
  %18 = load ptr, ptr %17, align 8
  store ptr %18, ptr %5, align 8
  store i32 0, ptr %6, align 4
  %19 = load i64, ptr %4, align 8
  %20 = mul i64 8, %19
  %21 = call noalias ptr @malloc(i64 noundef %20) #9
  store ptr %21, ptr %7, align 8
  %22 = icmp eq ptr %21, null
  br i1 %22, label %23, label %24

23:                                               ; preds = %1
  call void (ptr, ...) @print_debug(ptr noundef @.str.44)
  store i32 0, ptr %2, align 4
  br label %108

24:                                               ; preds = %1
  br label %25

25:                                               ; preds = %28, %24
  %26 = load ptr, ptr %5, align 8
  %27 = icmp ne ptr %26, null
  br i1 %27, label %28, label %39

28:                                               ; preds = %25
  %29 = load ptr, ptr %5, align 8
  %30 = load ptr, ptr %7, align 8
  %31 = load i32, ptr %6, align 4
  %32 = sext i32 %31 to i64
  %33 = getelementptr inbounds ptr, ptr %30, i64 %32
  store ptr %29, ptr %33, align 8
  %34 = load i32, ptr %6, align 4
  %35 = add nsw i32 %34, 1
  store i32 %35, ptr %6, align 4
  %36 = load ptr, ptr %5, align 8
  %37 = getelementptr inbounds %struct.map_info, ptr %36, i32 0, i32 5
  %38 = load ptr, ptr %37, align 8
  store ptr %38, ptr %5, align 8
  br label %25, !llvm.loop !9

39:                                               ; preds = %25
  %40 = load ptr, ptr %3, align 8
  %41 = getelementptr inbounds %struct.ps_prochandle, ptr %40, i32 0, i32 7
  %42 = load ptr, ptr %41, align 8
  %43 = getelementptr inbounds %struct.core_data, ptr %42, i32 0, i32 9
  %44 = load ptr, ptr %43, align 8
  %45 = icmp ne ptr %44, null
  br i1 %45, label %46, label %52

46:                                               ; preds = %39
  %47 = load ptr, ptr %3, align 8
  %48 = getelementptr inbounds %struct.ps_prochandle, ptr %47, i32 0, i32 7
  %49 = load ptr, ptr %48, align 8
  %50 = getelementptr inbounds %struct.core_data, ptr %49, i32 0, i32 9
  %51 = load ptr, ptr %50, align 8
  call void @free(ptr noundef %51) #8
  br label %52

52:                                               ; preds = %46, %39
  %53 = load ptr, ptr %7, align 8
  %54 = load ptr, ptr %3, align 8
  %55 = getelementptr inbounds %struct.ps_prochandle, ptr %54, i32 0, i32 7
  %56 = load ptr, ptr %55, align 8
  %57 = getelementptr inbounds %struct.core_data, ptr %56, i32 0, i32 9
  store ptr %53, ptr %57, align 8
  %58 = load ptr, ptr %3, align 8
  %59 = getelementptr inbounds %struct.ps_prochandle, ptr %58, i32 0, i32 7
  %60 = load ptr, ptr %59, align 8
  %61 = getelementptr inbounds %struct.core_data, ptr %60, i32 0, i32 9
  %62 = load ptr, ptr %61, align 8
  %63 = load ptr, ptr %3, align 8
  %64 = getelementptr inbounds %struct.ps_prochandle, ptr %63, i32 0, i32 7
  %65 = load ptr, ptr %64, align 8
  %66 = getelementptr inbounds %struct.core_data, ptr %65, i32 0, i32 6
  %67 = load i64, ptr %66, align 8
  call void @qsort(ptr noundef %62, i64 noundef %67, i64 noundef 8, ptr noundef @core_cmp_mapping)
  %68 = call i32 (...) @is_debug()
  %69 = icmp ne i32 %68, 0
  br i1 %69, label %70, label %107

70:                                               ; preds = %52
  store i32 0, ptr %8, align 4
  call void (ptr, ...) @print_debug(ptr noundef @.str.45)
  store i32 0, ptr %8, align 4
  br label %71

71:                                               ; preds = %103, %70
  %72 = load i32, ptr %8, align 4
  %73 = sext i32 %72 to i64
  %74 = load ptr, ptr %3, align 8
  %75 = getelementptr inbounds %struct.ps_prochandle, ptr %74, i32 0, i32 7
  %76 = load ptr, ptr %75, align 8
  %77 = getelementptr inbounds %struct.core_data, ptr %76, i32 0, i32 6
  %78 = load i64, ptr %77, align 8
  %79 = icmp ult i64 %73, %78
  br i1 %79, label %80, label %106

80:                                               ; preds = %71
  %81 = load ptr, ptr %3, align 8
  %82 = getelementptr inbounds %struct.ps_prochandle, ptr %81, i32 0, i32 7
  %83 = load ptr, ptr %82, align 8
  %84 = getelementptr inbounds %struct.core_data, ptr %83, i32 0, i32 9
  %85 = load ptr, ptr %84, align 8
  %86 = load i32, ptr %8, align 4
  %87 = sext i32 %86 to i64
  %88 = getelementptr inbounds ptr, ptr %85, i64 %87
  %89 = load ptr, ptr %88, align 8
  %90 = getelementptr inbounds %struct.map_info, ptr %89, i32 0, i32 2
  %91 = load i64, ptr %90, align 8
  %92 = load ptr, ptr %3, align 8
  %93 = getelementptr inbounds %struct.ps_prochandle, ptr %92, i32 0, i32 7
  %94 = load ptr, ptr %93, align 8
  %95 = getelementptr inbounds %struct.core_data, ptr %94, i32 0, i32 9
  %96 = load ptr, ptr %95, align 8
  %97 = load i32, ptr %8, align 4
  %98 = sext i32 %97 to i64
  %99 = getelementptr inbounds ptr, ptr %96, i64 %98
  %100 = load ptr, ptr %99, align 8
  %101 = getelementptr inbounds %struct.map_info, ptr %100, i32 0, i32 3
  %102 = load i64, ptr %101, align 8
  call void (ptr, ...) @print_debug(ptr noundef @.str.46, i64 noundef %91, i64 noundef %102)
  br label %103

103:                                              ; preds = %80
  %104 = load i32, ptr %8, align 4
  %105 = add nsw i32 %104, 1
  store i32 %105, ptr %8, align 4
  br label %71, !llvm.loop !10

106:                                              ; preds = %71
  br label %107

107:                                              ; preds = %106, %52
  store i32 1, ptr %2, align 4
  br label %108

108:                                              ; preds = %107, %23
  %109 = load i32, ptr %2, align 4
  ret i32 %109
}