; Function Attrs: nounwind uwtable
define internal fastcc range(i32 0, 2) i32 @sort_map_array(ptr nocapture noundef readonly %0) unnamed_addr #0 {
  %2 = getelementptr inbounds i8, ptr %0, i64 48
  %3 = load ptr, ptr %2, align 8
  %4 = getelementptr inbounds i8, ptr %3, i64 32
  %5 = load i64, ptr %4, align 8
  %6 = shl i64 %5, 3
  %7 = tail call noalias ptr @malloc(i64 noundef %6) #16
  %8 = icmp eq ptr %7, null
  br i1 %8, label %9, label %.preheader

.preheader:                                       ; preds = %1
  %.024.in29 = getelementptr inbounds i8, ptr %3, i64 40
  %.02430 = load ptr, ptr %.024.in29, align 8
  %.not31 = icmp eq ptr %.02430, null
  br i1 %.not31, label %._crit_edge, label %.lr.ph

9:                                                ; preds = %1
  tail call void (ptr, ...) @print_debug(ptr noundef nonnull @.str.44) #15
  br label %.loopexit

.lr.ph:                                           ; preds = %.preheader, %.lr.ph
  %indvars.iv = phi i64 [ %indvars.iv.next, %.lr.ph ], [ 0, %.preheader ]
  %.02433 = phi ptr [ %.024, %.lr.ph ], [ %.02430, %.preheader ]
  %10 = getelementptr inbounds ptr, ptr %7, i64 %indvars.iv
  store ptr %.02433, ptr %10, align 8
  %indvars.iv.next = add nuw nsw i64 %indvars.iv, 1
  %.024.in = getelementptr inbounds i8, ptr %.02433, i64 40
  %.024 = load ptr, ptr %.024.in, align 8
  %.not = icmp eq ptr %.024, null
  br i1 %.not, label %._crit_edge, label %.lr.ph, !llvm.loop !11

._crit_edge:                                      ; preds = %.lr.ph, %.preheader
  %11 = getelementptr inbounds i8, ptr %3, i64 56
  %12 = load ptr, ptr %11, align 8
  %.not27 = icmp eq ptr %12, null
  br i1 %.not27, label %14, label %13

13:                                               ; preds = %._crit_edge
  tail call void @free(ptr noundef nonnull %12) #15
  %.pre = load ptr, ptr %2, align 8
  br label %14

14:                                               ; preds = %13, %._crit_edge
  %15 = phi ptr [ %.pre, %13 ], [ %3, %._crit_edge ]
  %16 = getelementptr inbounds i8, ptr %15, i64 56
  store ptr %7, ptr %16, align 8
  %17 = load ptr, ptr %2, align 8
  %18 = getelementptr inbounds i8, ptr %17, i64 56
  %19 = load ptr, ptr %18, align 8
  %20 = getelementptr inbounds i8, ptr %17, i64 32
  %21 = load i64, ptr %20, align 8
  tail call void @qsort(ptr noundef %19, i64 noundef %21, i64 noundef 8, ptr noundef nonnull @core_cmp_mapping) #15
  %22 = tail call i32 (...) @is_debug() #15
  %.not28 = icmp eq i32 %22, 0
  br i1 %.not28, label %.loopexit, label %23

23:                                               ; preds = %14
  tail call void (ptr, ...) @print_debug(ptr noundef nonnull @.str.45) #15
  %24 = load ptr, ptr %2, align 8
  %25 = getelementptr inbounds i8, ptr %24, i64 32
  %26 = load i64, ptr %25, align 8
  %.not37 = icmp eq i64 %26, 0
  br i1 %.not37, label %.loopexit, label %.lr.ph36

.lr.ph36:                                         ; preds = %23, %.lr.ph36
  %indvars.iv39 = phi i64 [ %indvars.iv.next40, %.lr.ph36 ], [ 0, %23 ]
  %27 = phi ptr [ %36, %.lr.ph36 ], [ %24, %23 ]
  %28 = getelementptr inbounds i8, ptr %27, i64 56
  %29 = load ptr, ptr %28, align 8
  %30 = getelementptr inbounds ptr, ptr %29, i64 %indvars.iv39
  %31 = load ptr, ptr %30, align 8
  %32 = getelementptr inbounds i8, ptr %31, i64 16
  %33 = load i64, ptr %32, align 8
  %34 = getelementptr inbounds i8, ptr %31, i64 24
  %35 = load i64, ptr %34, align 8
  tail call void (ptr, ...) @print_debug(ptr noundef nonnull @.str.46, i64 noundef %33, i64 noundef %35) #15
  %indvars.iv.next40 = add nuw nsw i64 %indvars.iv39, 1
  %36 = load ptr, ptr %2, align 8
  %37 = getelementptr inbounds i8, ptr %36, i64 32
  %38 = load i64, ptr %37, align 8
  %39 = icmp ugt i64 %38, %indvars.iv.next40
  br i1 %39, label %.lr.ph36, label %.loopexit, !llvm.loop !12

.loopexit:                                        ; preds = %.lr.ph36, %23, %14, %9
  %.022 = phi i32 [ 0, %9 ], [ 1, %14 ], [ 1, %23 ], [ 1, %.lr.ph36 ]
  ret i32 %.022
}